target datalayout = "e-m:e-p270:32:32-p271:32:32-p272:64:64-i64:64-i128:128-f80:128-n8:16:32:64-S128"
target triple = "x86_64-pc-linux-gnu"

%"struct.duckdb_miniz::mz_zip_archive" = type { i64, i64, i32, i32, i32, i32, i64, ptr, ptr, ptr, ptr, ptr, ptr, ptr, ptr, ptr }
%"struct.duckdb_miniz::mz_zip_array" = type { ptr, i64, i64, i32 }

; Function Attrs: mustprogress uwtable
define internal noundef i32 @_ZN12duckdb_minizL28mz_zip_array_ensure_capacityEPNS_14mz_zip_archiveEPNS_12mz_zip_arrayEmj(ptr noundef %0, ptr noundef %1, i64 noundef %2, i32 noundef %3) #5 {
  %5 = alloca i32, align 4
  %6 = alloca ptr, align 8
  %7 = alloca ptr, align 8
  %8 = alloca i64, align 8
  %9 = alloca i32, align 4
  %10 = alloca ptr, align 8
  %11 = alloca i64, align 8
  %12 = alloca i32, align 4
  store ptr %0, ptr %6, align 8, !tbaa !19
  store ptr %1, ptr %7, align 8, !tbaa !19
  store i64 %2, ptr %8, align 8, !tbaa !3
  store i32 %3, ptr %9, align 4, !tbaa !10
  call void @llvm.lifetime.start.p0(i64 8, ptr %10) #11
  call void @llvm.lifetime.start.p0(i64 8, ptr %11) #11
  %13 = load i64, ptr %8, align 8, !tbaa !3
  store i64 %13, ptr %11, align 8, !tbaa !3
  %14 = load ptr, ptr %7, align 8, !tbaa !19
  %15 = getelementptr inbounds nuw %"struct.duckdb_miniz::mz_zip_array", ptr %14, i32 0, i32 2
  %16 = load i64, ptr %15, align 8, !tbaa !316
  %17 = load i64, ptr %8, align 8, !tbaa !3
  %18 = icmp uge i64 %16, %17
  br i1 %18, label %19, label %20

19:                                               ; preds = %4
  store i32 1, ptr %5, align 4
  store i32 1, ptr %12, align 4
  br label %68

20:                                               ; preds = %4
  %21 = load i32, ptr %9, align 4, !tbaa !10
  %22 = icmp ne i32 %21, 0
  br i1 %22, label %23, label %43

23:                                               ; preds = %20
  %24 = load ptr, ptr %7, align 8, !tbaa !19
  %25 = getelementptr inbounds nuw %"struct.duckdb_miniz::mz_zip_array", ptr %24, i32 0, i32 2
  %26 = load i64, ptr %25, align 8, !tbaa !316
  %27 = icmp ugt i64 1, %26
  br i1 %27, label %28, label %29

28:                                               ; preds = %23
  br label %33

29:                                               ; preds = %23
  %30 = load ptr, ptr %7, align 8, !tbaa !19
  %31 = getelementptr inbounds nuw %"struct.duckdb_miniz::mz_zip_array", ptr %30, i32 0, i32 2
  %32 = load i64, ptr %31, align 8, !tbaa !316
  br label %33

33:                                               ; preds = %29, %28
  %34 = phi i64 [ 1, %28 ], [ %32, %29 ]
  store i64 %34, ptr %11, align 8, !tbaa !3
  br label %35

35:                                               ; preds = %39, %33
  %36 = load i64, ptr %11, align 8, !tbaa !3
  %37 = load i64, ptr %8, align 8, !tbaa !3
  %38 = icmp ult i64 %36, %37
  br i1 %38, label %39, label %42

39:                                               ; preds = %35
  %40 = load i64, ptr %11, align 8, !tbaa !3
  %41 = mul i64 %40, 2
  store i64 %41, ptr %11, align 8, !tbaa !3
  br label %35, !llvm.loop !408

42:                                               ; preds = %35
  br label %43

43:                                               ; preds = %42, %20
  %44 = load ptr, ptr %6, align 8, !tbaa !19
  %45 = getelementptr inbounds nuw %"struct.duckdb_miniz::mz_zip_archive", ptr %44, i32 0, i32 9
  %46 = load ptr, ptr %45, align 8, !tbaa !243
  %47 = load ptr, ptr %6, align 8, !tbaa !19
  %48 = getelementptr inbounds nuw %"struct.duckdb_miniz::mz_zip_archive", ptr %47, i32 0, i32 10
  %49 = load ptr, ptr %48, align 8, !tbaa !238
  %50 = load ptr, ptr %7, align 8, !tbaa !19
  %51 = getelementptr inbounds nuw %"struct.duckdb_miniz::mz_zip_array", ptr %50, i32 0, i32 0
  %52 = load ptr, ptr %51, align 8, !tbaa !305
  %53 = load ptr, ptr %7, align 8, !tbaa !19
  %54 = getelementptr inbounds nuw %"struct.duckdb_miniz::mz_zip_array", ptr %53, i32 0, i32 3
  %55 = load i32, ptr %54, align 8, !tbaa !307
  %56 = zext i32 %55 to i64
  %57 = load i64, ptr %11, align 8, !tbaa !3
  %58 = call noundef ptr %46(ptr noundef %49, ptr noundef %52, i64 noundef %56, i64 noundef %57)
  store ptr %58, ptr %10, align 8, !tbaa !19
  %59 = icmp eq ptr null, %58
  br i1 %59, label %60, label %61

60:                                               ; preds = %43
  store i32 0, ptr %5, align 4
  store i32 1, ptr %12, align 4
  br label %68

61:                                               ; preds = %43
  %62 = load ptr, ptr %10, align 8, !tbaa !19
  %63 = load ptr, ptr %7, align 8, !tbaa !19
  %64 = getelementptr inbounds nuw %"struct.duckdb_miniz::mz_zip_array", ptr %63, i32 0, i32 0
  store ptr %62, ptr %64, align 8, !tbaa !305
  %65 = load i64, ptr %11, align 8, !tbaa !3
  %66 = load ptr, ptr %7, align 8, !tbaa !19
  %67 = getelementptr inbounds nuw %"struct.duckdb_miniz::mz_zip_array", ptr %66, i32 0, i32 2
  store i64 %65, ptr %67, align 8, !tbaa !316
  store i32 1, ptr %5, align 4
  store i32 1, ptr %12, align 4
  br label %68

68:                                               ; preds = %61, %60, %19
  call void @llvm.lifetime.end.p0(i64 8, ptr %11) #11
  call void @llvm.lifetime.end.p0(i64 8, ptr %10) #11
  %69 = load i32, ptr %5, align 4
  ret i32 %69
}