; Function Attrs: mustprogress uwtable
define internal fastcc noundef range(i32 0, 2) i32 @_ZN12duckdb_minizL28mz_zip_array_ensure_capacityEPNS_14mz_zip_archiveEPNS_12mz_zip_arrayEmj(ptr noundef readonly captures(none) %0, ptr noundef captures(none) %1, i64 noundef %2, i32 noundef range(i32 0, 2) %3) unnamed_addr #8 {
  %5 = getelementptr inbounds nuw i8, ptr %1, i64 16
  %6 = load i64, ptr %5, align 8, !tbaa !232
  %.not = icmp ult i64 %6, %2
  br i1 %.not, label %7, label %23

7:                                                ; preds = %4
  %.not22 = icmp eq i32 %3, 0
  br i1 %.not22, label %.loopexit, label %8

8:                                                ; preds = %7
  %spec.select = tail call i64 @llvm.umax.i64(i64 %6, i64 1)
  br label %9

9:                                                ; preds = %9, %8
  %.1 = phi i64 [ %spec.select, %8 ], [ %11, %9 ]
  %10 = icmp ult i64 %.1, %2
  %11 = shl i64 %.1, 1
  br i1 %10, label %9, label %.loopexit, !llvm.loop !304

.loopexit:                                        ; preds = %9, %7
  %.0 = phi i64 [ %2, %7 ], [ %.1, %9 ]
  %12 = getelementptr inbounds nuw i8, ptr %0, i64 56
  %13 = load ptr, ptr %12, align 8, !tbaa !218
  %14 = getelementptr inbounds nuw i8, ptr %0, i64 64
  %15 = load ptr, ptr %14, align 8, !tbaa !214
  %16 = load ptr, ptr %1, align 8, !tbaa !215
  %17 = getelementptr inbounds nuw i8, ptr %1, i64 24
  %18 = load i32, ptr %17, align 8, !tbaa !233
  %19 = zext i32 %18 to i64
  %20 = tail call noundef ptr %13(ptr noundef %15, ptr noundef %16, i64 noundef %19, i64 noundef %.0)
  %21 = icmp eq ptr %20, null
  br i1 %21, label %23, label %22

22:                                               ; preds = %.loopexit
  store ptr %20, ptr %1, align 8, !tbaa !215
  store i64 %.0, ptr %5, align 8, !tbaa !232
  br label %23

23:                                               ; preds = %.loopexit, %4, %22
  %.018 = phi i32 [ 1, %22 ], [ 1, %4 ], [ 0, %.loopexit ]
  ret i32 %.018
}